; Function Attrs: mustprogress nofree norecurse nosync nounwind willreturn memory(argmem: readwrite) uwtable
define void @_ZN7httplib10ClientImpl17set_ca_cert_storeEP13x509_store_st(ptr nocapture noundef nonnull align 8 dereferenceable(1000) %this, ptr noundef %ca_cert_store) local_unnamed_addr #21 align 2 {
entry:
  %tobool.not = icmp eq ptr %ca_cert_store, null
  br i1 %tobool.not, label %if.end, label %land.lhs.true

land.lhs.true:                                    ; preds = %entry
  %ca_cert_store_ = getelementptr inbounds i8, ptr %this, i64 952
  %0 = load ptr, ptr %ca_cert_store_, align 8
  %cmp.not = icmp eq ptr %0, %ca_cert_store
  br i1 %cmp.not, label %if.end, label %if.then

if.then:                                          ; preds = %land.lhs.true
  store ptr %ca_cert_store, ptr %ca_cert_store_, align 8
  br label %if.end

if.end:                                           ; preds = %if.then, %land.lhs.true, %entry
  ret void
}